; Function Attrs: nounwind uwtable
define range(i32 -1, 1) i32 @agset(ptr noundef %0, ptr noundef %1, ptr noundef %2) local_unnamed_addr #0 {
  %4 = alloca %struct.Agsym_s, align 8
  %5 = load ptr, ptr @AgDataRecName, align 8, !tbaa !15
  %6 = tail call ptr @aggetrec(ptr noundef %0, ptr noundef %5, i32 noundef 0) #12
  %.not.i = icmp eq ptr %6, null
  br i1 %.not.i, label %agattrsym.exit.thread, label %agattrsym.exit

agattrsym.exit:                                   ; preds = %3
  %7 = getelementptr inbounds nuw i8, ptr %6, i64 16
  %8 = load ptr, ptr %7, align 8, !tbaa !16
  call void @llvm.lifetime.start.p0(i64 40, ptr nonnull %4) #12
  %9 = getelementptr inbounds nuw i8, ptr %4, i64 16
  store ptr %1, ptr %9, align 8, !tbaa !8
  %10 = load ptr, ptr %8, align 8, !tbaa !25
  %11 = call ptr %10(ptr noundef nonnull %8, ptr noundef nonnull %4, i32 noundef 4) #12
  call void @llvm.lifetime.end.p0(i64 40, ptr nonnull %4) #12
  %12 = icmp eq ptr %11, null
  br i1 %12, label %agattrsym.exit.thread, label %13

13:                                               ; preds = %agattrsym.exit
  call fastcc void @agxset_(ptr noundef %0, ptr noundef nonnull %11, ptr noundef %2, i1 noundef zeroext false)
  br label %agattrsym.exit.thread

agattrsym.exit.thread:                            ; preds = %3, %agattrsym.exit, %13
  %.0 = phi i32 [ 0, %13 ], [ -1, %agattrsym.exit ], [ -1, %3 ]
  ret i32 %.0
}